; Function Attrs: mustprogress nounwind uwtable
define hidden void @_ZNK20ClassLoaderMetaspace17add_to_statisticsEPN9metaspace9ClmsStatsE(ptr nocapture noundef nonnull readonly align 8 dereferenceable(32) %0, ptr noundef %1) local_unnamed_addr #0 align 2 {
  %3 = load ptr, ptr %0, align 8
  %.not.i.i = icmp eq ptr %3, null
  br i1 %.not.i.i, label %_ZN11MutexLockerC2EP5MutexNS0_18SafepointCheckFlagE.exit, label %4

4:                                                ; preds = %2
  tail call void @_ZN5Mutex28lock_without_safepoint_checkEv(ptr noundef nonnull align 8 dereferenceable(104) %3) #6
  br label %_ZN11MutexLockerC2EP5MutexNS0_18SafepointCheckFlagE.exit

_ZN11MutexLockerC2EP5MutexNS0_18SafepointCheckFlagE.exit: ; preds = %2, %4
  %5 = getelementptr inbounds i8, ptr %0, i64 16
  %6 = load ptr, ptr %5, align 8
  %.not = icmp eq ptr %6, null
  br i1 %.not, label %8, label %7

7:                                                ; preds = %_ZN11MutexLockerC2EP5MutexNS0_18SafepointCheckFlagE.exit
  tail call void @_ZNK9metaspace14MetaspaceArena17add_to_statisticsEPNS_10ArenaStatsE(ptr noundef nonnull align 8 dereferenceable(56) %6, ptr noundef %1) #6
  br label %8

8:                                                ; preds = %7, %_ZN11MutexLockerC2EP5MutexNS0_18SafepointCheckFlagE.exit
  %9 = getelementptr inbounds i8, ptr %0, i64 24
  %10 = load ptr, ptr %9, align 8
  %.not3 = icmp eq ptr %10, null
  br i1 %.not3, label %13, label %11

11:                                               ; preds = %8
  %12 = getelementptr inbounds i8, ptr %1, i64 736
  tail call void @_ZNK9metaspace14MetaspaceArena17add_to_statisticsEPNS_10ArenaStatsE(ptr noundef nonnull align 8 dereferenceable(56) %10, ptr noundef nonnull %12) #6
  br label %13

13:                                               ; preds = %11, %8
  br i1 %.not.i.i, label %_ZN11MutexLockerD2Ev.exit, label %14

14:                                               ; preds = %13
  tail call void @_ZN5Mutex6unlockEv(ptr noundef nonnull align 8 dereferenceable(104) %3) #6
  br label %_ZN11MutexLockerD2Ev.exit

_ZN11MutexLockerD2Ev.exit:                        ; preds = %13, %14
  ret void
}